; Function Attrs: mustprogress uwtable
define hidden noundef i32 @_ZN2bv6solver11get_bv_sizeEi(ptr noundef nonnull readonly align 8 captures(none) dereferenceable(640) %0, i32 noundef %1) local_unnamed_addr #3 align 2 {
  %3 = getelementptr inbounds nuw i8, ptr %0, i64 88
  %4 = load ptr, ptr %3, align 8, !tbaa !112
  %5 = zext i32 %1 to i64
  %6 = getelementptr inbounds nuw ptr, ptr %4, i64 %5
  %7 = load ptr, ptr %6, align 8, !tbaa !113
  %8 = load ptr, ptr %7, align 8, !tbaa !80
  %9 = tail call noundef ptr @_ZNK4expr8get_sortEv(ptr noundef nonnull align 4 dereferenceable(16) %8)
  %10 = getelementptr inbounds nuw i8, ptr %9, i64 24
  %11 = load ptr, ptr %10, align 8, !tbaa !96
  %12 = getelementptr inbounds nuw i8, ptr %11, i64 8
  %13 = load ptr, ptr %12, align 8, !tbaa !114
  %14 = getelementptr inbounds nuw i8, ptr %13, i64 8
  %15 = load i8, ptr %14, align 8, !tbaa !115
  %.not.i.i.i.i.i.i = icmp eq i8 %15, 0
  br i1 %.not.i.i.i.i.i.i, label %_ZN2bv6solver11get_bv_sizeEPN3euf5enodeE.exit, label %16

16:                                               ; preds = %2
  %17 = tail call ptr @__cxa_allocate_exception(i64 16) #25
  store ptr getelementptr inbounds nuw inrange(-16, 24) (i8, ptr @_ZTVSt18bad_variant_access, i64 16), ptr %17, align 8, !tbaa !42
  %18 = getelementptr inbounds nuw i8, ptr %17, i64 8
  store ptr @.str.15, ptr %18, align 8, !tbaa !117
  tail call void @__cxa_throw(ptr nonnull %17, ptr nonnull @_ZTISt18bad_variant_access, ptr nonnull @_ZNSt9exceptionD2Ev) #27
  unreachable

_ZN2bv6solver11get_bv_sizeEPN3euf5enodeE.exit:    ; preds = %2
  %19 = load i32, ptr %13, align 4, !tbaa !47
  ret i32 %19
}